; Function Attrs: mustprogress nofree norecurse nosync nounwind willreturn memory(read, inaccessiblemem: none) uwtable
define hidden noundef zeroext i1 @_ZNK4cvc58internal6String9hasPrefixERKS1_(ptr nocapture noundef nonnull readonly align 8 dereferenceable(24) %this, ptr nocapture noundef nonnull readonly align 8 dereferenceable(24) %y) local_unnamed_addr #4 align 2 {
entry:
  %_M_finish.i.i = getelementptr inbounds i8, ptr %this, i64 8
  %0 = load ptr, ptr %_M_finish.i.i, align 8
  %1 = load ptr, ptr %this, align 8
  %sub.ptr.lhs.cast.i.i = ptrtoint ptr %0 to i64
  %sub.ptr.rhs.cast.i.i = ptrtoint ptr %1 to i64
  %sub.ptr.sub.i.i = sub i64 %sub.ptr.lhs.cast.i.i, %sub.ptr.rhs.cast.i.i
  %_M_finish.i.i6 = getelementptr inbounds i8, ptr %y, i64 8
  %2 = load ptr, ptr %_M_finish.i.i6, align 8
  %3 = load ptr, ptr %y, align 8
  %sub.ptr.lhs.cast.i.i7 = ptrtoint ptr %2 to i64
  %sub.ptr.rhs.cast.i.i8 = ptrtoint ptr %3 to i64
  %sub.ptr.sub.i.i9 = sub i64 %sub.ptr.lhs.cast.i.i7, %sub.ptr.rhs.cast.i.i8
  %sub.ptr.div.i.i10 = ashr exact i64 %sub.ptr.sub.i.i9, 2
  %cmp = icmp ugt i64 %sub.ptr.sub.i.i9, %sub.ptr.sub.i.i
  br i1 %cmp, label %return, label %for.cond.preheader

for.cond.preheader:                               ; preds = %entry
  %cmp312.not = icmp eq ptr %2, %3
  br i1 %cmp312.not, label %return, label %for.body.preheader

for.body.preheader:                               ; preds = %for.cond.preheader
  %umax = tail call i64 @llvm.umax.i64(i64 %sub.ptr.div.i.i10, i64 1)
  br label %for.body

for.body:                                         ; preds = %for.body, %for.body.preheader
  %i.013 = phi i64 [ 0, %for.body.preheader ], [ %inc, %for.body ]
  %add.ptr.i = getelementptr inbounds i32, ptr %1, i64 %i.013
  %4 = load i32, ptr %add.ptr.i, align 4
  %add.ptr.i11 = getelementptr inbounds i32, ptr %3, i64 %i.013
  %5 = load i32, ptr %add.ptr.i11, align 4
  %cmp7.not = icmp eq i32 %4, %5
  %inc = add nuw i64 %i.013, 1
  %exitcond.not = icmp ne i64 %inc, %umax
  %or.cond.not = select i1 %cmp7.not, i1 %exitcond.not, i1 false
  br i1 %or.cond.not, label %for.body, label %return, !llvm.loop !46

return:                                           ; preds = %for.body, %for.cond.preheader, %entry
  %retval.0 = phi i1 [ false, %entry ], [ true, %for.cond.preheader ], [ %cmp7.not, %for.body ]
  ret i1 %retval.0
}